Certificate:
    Data:
        Version: 3 (0x2)
        Serial Number:
            70:f1:73:8a:99:08:94:c9:e6:c6:13:62:37:a7:2e:46
    Signature Algorithm: sha256WithRSAEncryption
        Issuer: O=City Storage Systems, CN=City Storage Systems Root Certification Authority
        Validity
            Not Before: Oct  8 22:50:20 2018 GMT
            Not After : Oct  8 22:50:20 2023 GMT
        Subject: O=City Storage Systems, CN=City Storage Systems Intermediate Certification Authority
        Subject Public Key Info:
            Public Key Algorithm: rsaEncryption
                Public-Key: (3072 bit)
                Modulus:
                    00:b3:2c:91:b4:92:5d:29:c3:75:54:d8:89:f9:c9:
                    25:16:41:20:21:cb:11:4b:8a:68:54:cb:d4:58:97:
                    64:48:c1:86:68:1f:bf:cb:d3:d2:bb:5f:dc:0f:76:
                    5d:13:39:54:4e:90:aa:ad:1d:ef:23:b4:66:dd:55:
                    b3:59:4b:63:a9:9e:23:2e:47:4c:8a:f8:2f:c1:12:
                    b5:ad:81:08:b4:b4:2b:a4:a1:5a:f5:db:18:8c:94:
                    d3:fd:25:29:9a:3b:e0:c4:86:7e:bf:0f:a7:50:12:
                    d8:b6:89:da:d9:f5:90:25:86:e7:ea:09:8c:ba:de:
                    95:d0:9b:8f:41:9b:79:ce:b5:9c:72:ed:7f:77:8c:
                    b4:54:f8:d4:d1:d9:30:49:a3:38:0b:f3:62:e8:24:
                    e2:ab:d7:cf:51:d4:e1:ac:3b:3a:25:d2:e8:b2:01:
                    b5:44:7e:e4:78:e5:5a:2c:78:85:ba:40:ec:e2:7a:
                    28:38:a4:a2:ba:48:4e:a7:b2:0a:c3:4a:91:24:b5:
                    ae:e5:fd:80:ab:ea:30:03:34:00:ef:1f:3b:f1:90:
                    bb:a1:69:aa:e2:7c:bd:e5:2c:01:a2:a5:8f:15:c6:
                    d5:25:3f:b7:cb:aa:1a:0c:7d:3e:a0:79:4a:db:af:
                    bf:d0:59:78:bc:f1:96:f3:4c:f4:96:79:5f:72:82:
                    a1:52:37:e9:93:34:9f:45:dc:22:3c:4d:36:93:0b:
                    29:1a:07:5c:96:21:b4:fd:85:cc:4e:9f:80:88:47:
                    de:68:8a:6e:f7:b7:ec:09:05:b9:d9:24:1d:b3:a2:
                    a9:bf:ed:67:d5:10:85:58:a4:9e:40:d9:fc:45:23:
                    52:b1:c3:07:0f:22:4f:e5:f3:7c:b7:d1:e1:2d:f1:
                    f2:53:6c:b2:ba:a6:ca:e5:05:de:fe:fe:65:1a:97:
                    f7:d9:e5:51:f8:0f:e6:49:dd:7b:5a:30:13:5c:71:
                    95:01:c2:47:49:f2:b2:31:db:04:9a:b7:cd:79:24:
                    e7:b7:57:97:00:60:a7:f3:4b:c7
                Exponent: 65537 (0x10001)
        X509v3 extensions:
            X509v3 Basic Constraints: critical
                CA:TRUE, pathlen:0
            X509v3 Key Usage: critical
                Certificate Sign, CRL Sign
            X509v3 Subject Key Identifier: 
                1B:73:39:B1:93:D0:AF:65:A6:70:90:F3:12:C0:0A:CC:4D:68:8A:84
            X509v3 Subject Alternative Name: 
                URI:, email:
            X509v3 Authority Key Identifier: 
                keyid:75:C5:A5:15:65:DE:C1:49:8E:31:14:25:25:ED:0A:66:04:95:F5:C5

            X509v3 Issuer Alternative Name: 
                URI:, email:
    Signature Algorithm: sha256WithRSAEncryption
         63:89:71:53:e5:bd:d3:73:d6:dd:d6:eb:4e:59:a7:dd:c6:d3:
         b6:0b:70:23:8f:20:00:1d:4d:88:be:b5:d4:26:38:b1:6f:5b:
         d7:f6:e7:dd:f3:bf:e3:33:ff:51:fd:4b:12:7d:33:10:15:da:
         a0:07:49:b7:d4:e5:0f:f2:b7:a9:7e:f5:83:1a:99:6e:42:f2:
         16:d4:1f:19:ee:bd:5b:54:f5:11:de:f2:a6:52:5e:1e:90:32:
         b8:bc:91:cb:bf:b5:41:9a:4c:ed:cb:ae:75:6e:2e:f9:c5:1d:
         3a:59:03:0c:82:6c:ac:7d:32:ce:c9:82:33:e7:9c:97:78:56:
         51:11:76:70:1d:6f:90:d3:18:b2:51:58:5a:fe:f8:d3:8b:a0:
         1c:84:f2:e3:f6:64:c4:2a:25:16:24:b7:72:ec:47:90:02:f7:
         08:08:5a:bb:95:a0:fe:b5:42:a1:7e:ca:a2:9b:25:8d:46:ab:
         ca:2a:85:ee:f5:d2:ae:8f:c1:03:e0:64:48:54:bd:7b:cb:d9:
         a9:a2:96:57:ab:df:6d:34:7b:7d:81:27:8f:38:5f:dd:00:06:
         0a:27:62:6c:27:6d:f5:49:52:61:7b:75:5b:c6:52:3f:ce:d8:
         ed:2e:c0:61:b8:c6:56:2d:df:1d:35:22:64:a1:a9:38:15:91:
         42:07:1f:f7:c4:24:43:60:f4:86:ff:0b:47:34:7b:3c:27:8f:
         9a:68:03:7b:ff:98:ba:3c:49:ff:8d:7a:a5:de:c6:01:85:36:
         ca:ed:75:4b:f3:cb:e8:24:ab:33:25:89:10:90:46:81:75:4c:
         e0:65:d2:13:fe:47:a2:2f:f5:65:39:8c:82:03:8e:53:7e:4f:
         2d:bb:d3:ec:6a:14:5b:82:88:62:54:e2:bf:96:05:a3:0d:64:
         9e:8d:a9:96:94:8a:78:ed:55:46:b3:c9:82:f2:66:4c:c0:00:
         11:5f:68:84:05:75:75:3c:32:47:fa:bc:66:6a:ed:73:cd:bc:
         80:36:24:dd:16:0b:60:a5:df:fd:ed:69:ab:a9:24:c4:82:37:
         63:d4:4d:d6:4d:2f:a6:15:0b:d9:e2:40:87:d7:88:fc:7a:ca:
         c3:b9:ba:89:a8:37:45:28:3d:09:9b:3c:fb:a5:a3:a2:24:13:
         5a:c9:56:1a:33:cb:87:71:49:5c:25:e9:72:cd:ec:bd:c3:e5:
         73:7e:ca:d8:8f:6e:79:c7:5f:fa:b7:3d:b4:b5:dd:21:17:79:
         6a:f5:2b:af:2b:e2:ed:57:ae:1e:1b:30:58:96:c9:d4:ee:9e:
         3b:13:7a:9f:90:0a:5a:f6:69:0e:57:0d:a1:78:18:ca:4b:99:
         d8:aa:ef:00:4a:61:1d:fe
-----BEGIN CERTIFICATE-----
MIIFTjCCAzagAwIBAgIQcPFzipkIlMnmxhNiN6cuRjANBgkqhkiG9w0BAQsFADBb
MR0wGwYDVQQKDBRDaXR5IFN0b3JhZ2UgU3lzdGVtczE6MDgGA1UEAwwxQ2l0eSBT
dG9yYWdlIFN5c3RlbXMgUm9vdCBDZXJ0aWZpY2F0aW9uIEF1dGhvcml0eTAeFw0x
ODEwMDgyMjUwMjBaFw0yMzEwMDgyMjUwMjBaMGMxHTAbBgNVBAoMFENpdHkgU3Rv
cmFnZSBTeXN0ZW1zMUIwQAYDVQQDDDlDaXR5IFN0b3JhZ2UgU3lzdGVtcyBJbnRl
cm1lZGlhdGUgQ2VydGlmaWNhdGlvbiBBdXRob3JpdHkwggGiMA0GCSqGSIb3DQEB
AQUAA4IBjwAwggGKAoIBgQCzLJG0kl0pw3VU2In5ySUWQSAhyxFLimhUy9RYl2RI
wYZoH7/L09K7X9wPdl0TOVROkKqtHe8jtGbdVbNZS2OpniMuR0yK+C/BErWtgQi0
tCukoVr12xiMlNP9JSmaO+DEhn6/D6dQEti2idrZ9ZAlhufqCYy63pXQm49Bm3nO
tZxy7X93jLRU+NTR2TBJozgL82LoJOKr189R1OGsOzol0uiyAbVEfuR45VoseIW6
QOzieig4pKK6SE6nsgrDSpEkta7l/YCr6jADNADvHzvxkLuhaarifL3lLAGipY8V
xtUlP7fLqhoMfT6geUrbr7/QWXi88ZbzTPSWeV9ygqFSN+mTNJ9F3CI8TTaTCyka
B1yWIbT9hcxOn4CIR95oim73t+wJBbnZJB2zoqm/7WfVEIVYpJ5A2fxFI1KxwwcP
Ik/l83y30eEt8fJTbLK6psrlBd7+/mUal/fZ5VH4D+ZJ3XtaMBNccZUBwkdJ8rIx
2wSat815JOe3V5cAYKfzS8cCAwEAAaOBhTCBgjASBgNVHRMBAf8ECDAGAQH/AgEA
MA4GA1UdDwEB/wQEAwIBBjAdBgNVHQ4EFgQUG3M5sZPQr2WmcJDzEsAKzE1oioQw
DQYDVR0RBAYwBIYAgQAwHwYDVR0jBBgwFoAUdcWlFWXewUmOMRQlJe0KZgSV9cUw
DQYDVR0SBAYwBIYAgQAwDQYJKoZIhvcNAQELBQADggIBAGOJcVPlvdNz1t3W605Z
p93G07YLcCOPIAAdTYi+tdQmOLFvW9f2593zv+Mz/1H9SxJ9MxAV2qAHSbfU5Q/y
t6l+9YMamW5C8hbUHxnuvVtU9RHe8qZSXh6QMri8kcu/tUGaTO3LrnVuLvnFHTpZ
AwyCbKx9Ms7JgjPnnJd4VlERdnAdb5DTGLJRWFr++NOLoByE8uP2ZMQqJRYkt3Ls
R5AC9wgIWruVoP61QqF+yqKbJY1Gq8oqhe710q6PwQPgZEhUvXvL2amiller3200
e32BJ484X90ABgonYmwnbfVJUmF7dVvGUj/O2O0uwGG4xlYt3x01ImShqTgVkUIH
H/fEJENg9Ib/C0c0ezwnj5poA3v/mLo8Sf+NeqXexgGFNsrtdUvzy+gkqzMliRCQ
RoF1TOBl0hP+R6Iv9WU5jIIDjlN+Ty270+xqFFuCiGJU4r+WBaMNZJ6NqZaUinjt
VUazyYLyZkzAABFfaIQFdXU8Mkf6vGZq7XPNvIA2JN0WC2Cl3/3taaupJMSCN2PU
TdZNL6YVC9niQIfXiPx6ysO5uomoN0UoPQmbPPulo6IkE1rJVhozy4dxSVwl6XLN
7L3D5XN+ytiPbnnHX/q3PbS13SEXeWr1K68r4u1Xrh4bMFiWydTunjsTep+QClr2
aQ5XDaF4GMpLmdiq7wBKYR3+
-----END CERTIFICATE-----
