Certificate:
    Data:
        Version: 3 (0x2)
        Serial Number:
            3c:ec:eb:09:4e:fd:ad:6d:c9:b6:bc:fe:dc:93:da:93
    Signature Algorithm: sha256WithRSAEncryption
        Issuer: O=City Storage Systems, CN=City Storage Systems Root Certification Authority
        Validity
            Not Before: Oct  8 22:15:35 2018 GMT
            Not After : Oct  8 22:15:35 2023 GMT
        Subject: O=City Storage Systems, CN=City Storage Systems Root Certification Authority
        Subject Public Key Info:
            Public Key Algorithm: rsaEncryption
                Public-Key: (4096 bit)
                Modulus:
                    00:de:37:7a:1a:45:b6:bd:c3:02:5f:7c:30:ef:12:
                    e1:95:4e:01:cf:50:d6:6a:67:75:70:3f:22:c7:33:
                    51:81:a0:f6:8c:ba:0e:ab:65:6c:52:3c:e4:f4:52:
                    17:c4:7d:75:53:d4:3f:28:f1:ca:c1:8a:b7:2c:19:
                    80:d0:f9:ca:f7:c7:dc:53:13:92:96:b7:70:60:d9:
                    1f:24:4a:7a:41:4b:ae:c0:5d:3c:0f:fe:62:f7:b9:
                    ac:08:9a:46:0e:4b:8f:01:25:fb:47:08:82:43:9f:
                    55:c8:93:70:70:08:72:6f:42:57:20:b5:5f:c0:94:
                    79:b3:e9:73:ba:a0:1c:d0:f3:b8:96:9c:14:3f:d2:
                    6c:f7:59:fb:a1:21:19:f9:84:d4:19:d8:06:66:ec:
                    11:96:5f:c4:c1:a7:b3:a8:55:0e:30:c6:a7:39:8b:
                    d8:ba:83:2a:13:28:24:f7:36:aa:b5:d7:8e:24:c5:
                    00:1f:f7:e7:3b:61:95:24:48:ba:90:7b:bd:ac:2d:
                    fd:48:54:80:55:83:a3:b7:59:13:2c:47:fc:c1:2f:
                    16:66:df:af:6a:b1:eb:07:d2:c9:34:7f:25:b4:f9:
                    fd:4f:94:1d:a0:28:a9:a6:b3:41:3c:ba:a7:f2:d6:
                    59:d8:63:92:f1:48:ca:db:e7:11:a8:26:4b:23:d2:
                    bf:1c:f2:13:a0:01:a9:4e:56:8c:2c:9d:04:67:d9:
                    9f:4e:13:b8:7b:ec:5b:e1:e6:6b:7d:cb:86:e9:e0:
                    4a:f9:b5:9d:f0:da:ca:26:49:34:fd:10:56:8f:86:
                    2e:a9:f0:d5:f0:c4:a8:e7:17:18:72:71:08:e9:ab:
                    8e:bb:2e:88:24:fd:f0:95:54:09:8b:6f:4c:33:d1:
                    c1:19:0a:6e:2f:d8:bc:3e:35:23:78:26:b1:92:3a:
                    2b:33:de:fd:68:48:e0:fd:03:02:8e:08:19:ed:ed:
                    cc:1f:8f:8e:46:a1:c3:9a:b5:e5:6e:88:36:9c:0e:
                    df:f6:92:d4:66:a2:ee:d6:3e:d2:c1:39:14:56:53:
                    2c:f0:8c:c2:45:f5:93:3b:b4:85:38:a9:1b:a4:67:
                    c7:f8:e7:f2:0b:79:96:7b:c9:11:1a:e1:f0:22:30:
                    67:b7:c2:3e:96:eb:c2:98:ab:0f:a7:0f:73:fa:ed:
                    2d:9c:26:16:b6:a1:6d:46:b2:86:e3:ca:42:cf:49:
                    09:98:42:ea:1a:dd:f4:fd:f3:6c:6b:73:79:03:71:
                    4b:04:89:e5:56:a8:65:2a:80:f4:29:cc:2f:1d:fa:
                    04:8b:d3:5a:9b:09:98:9b:34:c3:70:76:d9:33:36:
                    b3:69:81:eb:94:31:9c:da:bd:4d:c4:46:24:c1:5d:
                    18:d7:71
                Exponent: 65537 (0x10001)
        X509v3 extensions:
            X509v3 Basic Constraints: critical
                CA:TRUE
            X509v3 Key Usage: critical
                Certificate Sign, CRL Sign
            X509v3 Subject Key Identifier: 
                75:C5:A5:15:65:DE:C1:49:8E:31:14:25:25:ED:0A:66:04:95:F5:C5
            X509v3 Subject Alternative Name: 
                URI:, email:
            X509v3 Authority Key Identifier: 
                keyid:75:C5:A5:15:65:DE:C1:49:8E:31:14:25:25:ED:0A:66:04:95:F5:C5

            X509v3 Issuer Alternative Name: 
                URI:, email:
    Signature Algorithm: sha256WithRSAEncryption
         07:b9:32:b1:4f:76:69:bf:48:34:4b:55:4d:34:5b:16:a9:4c:
         68:c5:93:81:44:b2:4b:7f:92:1f:e5:3a:40:62:29:7f:44:51:
         b4:12:52:c6:aa:d7:19:93:d1:81:fd:58:2e:4a:f5:1b:21:6d:
         fa:cc:96:11:d5:e1:35:57:b8:36:66:26:d3:61:da:1c:67:84:
         14:e7:94:a7:39:c3:0f:f6:9b:23:07:bf:79:39:19:cd:e7:59:
         09:52:3b:a8:16:3e:64:5b:e4:8a:e5:e1:ef:96:92:3a:97:f1:
         ed:4e:2a:d8:a8:c9:9f:a0:fb:46:91:59:e7:b6:be:bd:bf:28:
         fc:3e:47:08:22:ba:36:04:8f:88:50:9a:3a:c0:11:df:91:98:
         5a:3a:a0:e1:30:5a:3b:00:59:4d:5b:d7:27:bc:1a:a1:39:7b:
         2a:99:1b:78:b6:c7:a6:03:35:70:cc:aa:3e:3d:45:8b:c2:f1:
         92:83:1d:de:ce:48:f9:d5:c8:a5:5a:fb:49:5b:33:14:86:ab:
         4c:d0:1a:7a:2d:65:6c:81:03:8e:19:ed:c9:9e:ca:c7:44:4d:
         a7:97:ba:66:10:3d:16:c4:b6:6e:3a:ff:50:86:6a:c6:ab:60:
         22:72:57:1c:e1:80:01:77:d0:34:40:e8:6d:f6:b1:55:8d:c9:
         3e:2d:51:07:fc:11:f9:76:af:06:e7:00:cb:17:34:ad:51:bf:
         6a:58:c1:b7:25:4b:e3:53:70:16:c8:a2:c3:ca:1a:ea:22:d0:
         f3:85:ff:f5:d2:1b:18:37:0d:c0:17:ac:f8:15:dd:18:27:43:
         2d:b7:67:e5:c2:96:1f:5e:2f:66:88:4f:80:12:e6:a4:86:d0:
         71:ab:1d:13:e8:56:91:23:c0:da:ee:40:7c:8f:05:86:f4:b7:
         75:bb:8a:68:e5:67:31:35:3a:0e:a9:f0:ac:76:91:07:75:54:
         8a:8b:31:b7:3d:b2:2a:1e:bb:db:9e:ff:1c:ed:5b:37:cc:46:
         10:18:9b:19:9f:eb:a5:e8:44:2c:01:d4:93:8b:37:f3:f2:a5:
         8c:b2:65:36:05:8f:f7:b8:4c:6d:60:d2:f0:23:d0:29:b1:b9:
         78:5e:1a:c0:a5:de:72:ec:b1:d7:3c:16:7f:8d:c3:ab:9a:8d:
         21:57:aa:fc:ac:b2:43:0f:bb:f5:d9:b6:90:ea:ad:41:fe:bb:
         45:51:8f:fa:30:41:5b:72:58:cf:f8:7b:34:de:65:fa:b9:06:
         52:57:97:31:b2:7e:56:05:69:a2:8b:34:9d:9f:7d:bc:0e:7c:
         ef:22:a4:dc:ec:fe:85:fe:f5:6e:7b:1a:56:73:73:7b:6c:88:
         c0:1e:a8:08:6b:30:d8:88
-----BEGIN CERTIFICATE-----
MIIFwjCCA6qgAwIBAgIQPOzrCU79rW3Jtrz+3JPakzANBgkqhkiG9w0BAQsFADBb
MR0wGwYDVQQKDBRDaXR5IFN0b3JhZ2UgU3lzdGVtczE6MDgGA1UEAwwxQ2l0eSBT
dG9yYWdlIFN5c3RlbXMgUm9vdCBDZXJ0aWZpY2F0aW9uIEF1dGhvcml0eTAeFw0x
ODEwMDgyMjE1MzVaFw0yMzEwMDgyMjE1MzVaMFsxHTAbBgNVBAoMFENpdHkgU3Rv
cmFnZSBTeXN0ZW1zMTowOAYDVQQDDDFDaXR5IFN0b3JhZ2UgU3lzdGVtcyBSb290
IENlcnRpZmljYXRpb24gQXV0aG9yaXR5MIICIjANBgkqhkiG9w0BAQEFAAOCAg8A
MIICCgKCAgEA3jd6GkW2vcMCX3ww7xLhlU4Bz1DWamd1cD8ixzNRgaD2jLoOq2Vs
Ujzk9FIXxH11U9Q/KPHKwYq3LBmA0PnK98fcUxOSlrdwYNkfJEp6QUuuwF08D/5i
97msCJpGDkuPASX7RwiCQ59VyJNwcAhyb0JXILVfwJR5s+lzuqAc0PO4lpwUP9Js
91n7oSEZ+YTUGdgGZuwRll/EwaezqFUOMManOYvYuoMqEygk9zaqtdeOJMUAH/fn
O2GVJEi6kHu9rC39SFSAVYOjt1kTLEf8wS8WZt+varHrB9LJNH8ltPn9T5QdoCip
prNBPLqn8tZZ2GOS8UjK2+cRqCZLI9K/HPIToAGpTlaMLJ0EZ9mfThO4e+xb4eZr
fcuG6eBK+bWd8NrKJkk0/RBWj4YuqfDV8MSo5xcYcnEI6auOuy6IJP3wlVQJi29M
M9HBGQpuL9i8PjUjeCaxkjorM979aEjg/QMCjggZ7e3MH4+ORqHDmrXlbog2nA7f
9pLUZqLu1j7SwTkUVlMs8IzCRfWTO7SFOKkbpGfH+OfyC3mWe8kRGuHwIjBnt8I+
luvCmKsPpw9z+u0tnCYWtqFtRrKG48pCz0kJmELqGt30/fNsa3N5A3FLBInlVqhl
KoD0KcwvHfoEi9NamwmYmzTDcHbZMzazaYHrlDGc2r1NxEYkwV0Y13ECAwEAAaOB
gTB/MA8GA1UdEwEB/wQFMAMBAf8wDgYDVR0PAQH/BAQDAgEGMB0GA1UdDgQWBBR1
xaUVZd7BSY4xFCUl7QpmBJX1xTANBgNVHREEBjAEhgCBADAfBgNVHSMEGDAWgBR1
xaUVZd7BSY4xFCUl7QpmBJX1xTANBgNVHRIEBjAEhgCBADANBgkqhkiG9w0BAQsF
AAOCAgEAB7kysU92ab9INEtVTTRbFqlMaMWTgUSyS3+SH+U6QGIpf0RRtBJSxqrX
GZPRgf1YLkr1GyFt+syWEdXhNVe4NmYm02HaHGeEFOeUpznDD/abIwe/eTkZzedZ
CVI7qBY+ZFvkiuXh75aSOpfx7U4q2KjJn6D7RpFZ57a+vb8o/D5HCCK6NgSPiFCa
OsAR35GYWjqg4TBaOwBZTVvXJ7waoTl7KpkbeLbHpgM1cMyqPj1Fi8LxkoMd3s5I
+dXIpVr7SVszFIarTNAaei1lbIEDjhntyZ7Kx0RNp5e6ZhA9FsS2bjr/UIZqxqtg
InJXHOGAAXfQNEDobfaxVY3JPi1RB/wR+XavBucAyxc0rVG/aljBtyVL41NwFsii
w8oa6iLQ84X/9dIbGDcNwBes+BXdGCdDLbdn5cKWH14vZohPgBLmpIbQcasdE+hW
kSPA2u5AfI8FhvS3dbuKaOVnMTU6DqnwrHaRB3VUiosxtz2yKh67257/HO1bN8xG
EBibGZ/rpehELAHUk4s38/KljLJlNgWP97hMbWDS8CPQKbG5eF4awKXecuyx1zwW
f43Dq5qNIVeq/KyyQw+79dm2kOqtQf67RVGP+jBBW3JYz/h7NN5l+rkGUleXMbJ+
VgVpoos0nZ99vA587yKk3Oz+hf71bnsaVnNze2yIwB6oCGsw2Ig=
-----END CERTIFICATE-----
